target datalayout = "e-m:e-p270:32:32-p271:32:32-p272:64:64-i64:64-i128:128-f80:128-n8:16:32:64-S128"
target triple = "x86_64-pc-linux-gnu"

@.str.5 = private unnamed_addr constant [33 x i8] c"../openssl/test/quic_wire_test.c\00", align 1
@.str.23 = private unnamed_addr constant [9 x i8] c"fail < 0\00", align 1
@.str.55 = private unnamed_addr constant [7 x i8] c"0x1234\00", align 1
@.str.77 = private unnamed_addr constant [9 x i8] c"max_data\00", align 1
@.str.79 = private unnamed_addr constant [72 x i8] c"ossl_quic_wire_decode_frame_max_stream_data(pkt, &stream_id, &max_data)\00", align 1
@.str.80 = private unnamed_addr constant [10 x i8] c"stream_id\00", align 1
@.str.81 = private unnamed_addr constant [7 x i8] c"0x9781\00", align 1

; Function Attrs: nounwind uwtable
define internal i32 @encode_case_11_dec(ptr noundef %0, i64 noundef %1) #0 {
  %3 = alloca i32, align 4
  %4 = alloca ptr, align 8
  %5 = alloca i64, align 8
  %6 = alloca i64, align 8
  %7 = alloca i64, align 8
  %8 = alloca i32, align 4
  store ptr %0, ptr %4, align 8, !tbaa !40
  store i64 %1, ptr %5, align 8, !tbaa !19
  call void @llvm.lifetime.start.p0(i64 8, ptr %6) #5
  store i64 0, ptr %6, align 8, !tbaa !19
  call void @llvm.lifetime.start.p0(i64 8, ptr %7) #5
  store i64 0, ptr %7, align 8, !tbaa !19
  %9 = load ptr, ptr %4, align 8, !tbaa !40
  %10 = call i32 @ossl_quic_wire_decode_frame_max_stream_data(ptr noundef %9, ptr noundef %6, ptr noundef %7)
  %11 = load i64, ptr %5, align 8, !tbaa !19
  %12 = icmp slt i64 %11, 0
  %13 = zext i1 %12 to i32
  %14 = call i32 @test_int_eq(ptr noundef @.str.5, i32 noundef 499, ptr noundef @.str.79, ptr noundef @.str.23, i32 noundef %10, i32 noundef %13)
  %15 = icmp ne i32 %14, 0
  br i1 %15, label %17, label %16

16:                                               ; preds = %2
  store i32 0, ptr %3, align 4
  store i32 1, ptr %8, align 4
  br label %32

17:                                               ; preds = %2
  %18 = load i64, ptr %5, align 8, !tbaa !19
  %19 = icmp sge i64 %18, 0
  br i1 %19, label %20, label %21

20:                                               ; preds = %17
  store i32 1, ptr %3, align 4
  store i32 1, ptr %8, align 4
  br label %32

21:                                               ; preds = %17
  %22 = load i64, ptr %6, align 8, !tbaa !19
  %23 = call i32 @test_uint64_t_eq(ptr noundef @.str.5, i32 noundef 505, ptr noundef @.str.80, ptr noundef @.str.55, i64 noundef %22, i64 noundef 4660)
  %24 = icmp ne i32 %23, 0
  br i1 %24, label %26, label %25

25:                                               ; preds = %21
  store i32 0, ptr %3, align 4
  store i32 1, ptr %8, align 4
  br label %32

26:                                               ; preds = %21
  %27 = load i64, ptr %7, align 8, !tbaa !19
  %28 = call i32 @test_uint64_t_eq(ptr noundef @.str.5, i32 noundef 508, ptr noundef @.str.77, ptr noundef @.str.81, i64 noundef %27, i64 noundef 38785)
  %29 = icmp ne i32 %28, 0
  br i1 %29, label %31, label %30

30:                                               ; preds = %26
  store i32 0, ptr %3, align 4
  store i32 1, ptr %8, align 4
  br label %32

31:                                               ; preds = %26
  store i32 1, ptr %3, align 4
  store i32 1, ptr %8, align 4
  br label %32

32:                                               ; preds = %31, %30, %25, %20, %16
  call void @llvm.lifetime.end.p0(i64 8, ptr %7) #5
  call void @llvm.lifetime.end.p0(i64 8, ptr %6) #5
  %33 = load i32, ptr %3, align 4
  ret i32 %33
}